target datalayout = "e-m:e-p270:32:32-p271:32:32-p272:64:64-i64:64-i128:128-f80:128-n8:16:32:64-S128"
target triple = "x86_64-pc-linux-gnu"

%class.ast = type { i32, i32, i32, i32 }
%class.ptr_vector.42 = type { %class.vector.43 }
%class.vector.43 = type { ptr }
%class.ref_manager_wrapper = type { ptr }
%class.ref_vector = type { %class.ref_vector_core }
%class.ref_vector_core = type { %class.ref_manager_wrapper, %class.ptr_vector.42 }
%"class.macro_util::macro_candidates" = type { %class.ptr_vector.58, %class.ref_vector, %class.ref_vector, %class.svector.60, %class.svector.60, %class.svector.60 }
%class.ptr_vector.58 = type { %class.vector.59 }
%class.vector.59 = type { ptr }
%class.svector.60 = type { %class.vector.61 }
%class.vector.61 = type { ptr }

; Function Attrs: mustprogress nounwind uwtable
define linkonce_odr hidden void @_ZN3ast7inc_refEv(ptr noundef nonnull align 4 dereferenceable(16) %0) #7 comdat align 2 {
  %2 = alloca ptr, align 8
  store ptr %0, ptr %2, align 8, !tbaa !82
  %3 = load ptr, ptr %2, align 8
  %4 = getelementptr inbounds nuw %class.ast, ptr %3, i32 0, i32 2
  %5 = load i32, ptr %4, align 4, !tbaa !444
  %6 = add i32 %5, 1
  store i32 %6, ptr %4, align 4, !tbaa !444
  ret void
}

; Function Attrs: mustprogress uwtable
define linkonce_odr hidden void @_ZN11ast_manager7inc_refEP3ast(ptr noundef nonnull align 8 dereferenceable(976) %0, ptr noundef %1) #4 comdat align 2 {
  %3 = alloca ptr, align 8
  %4 = alloca ptr, align 8
  store ptr %0, ptr %3, align 8, !tbaa !8
  store ptr %1, ptr %4, align 8, !tbaa !82
  %5 = load ptr, ptr %4, align 8, !tbaa !82
  %6 = icmp ne ptr %5, null
  br i1 %6, label %7, label %9

7:                                                ; preds = %2
  %8 = load ptr, ptr %4, align 8, !tbaa !82
  call void @_ZN3ast7inc_refEv(ptr noundef nonnull align 4 dereferenceable(16) %8)
  br label %9

9:                                                ; preds = %7, %2
  ret void
}

; Function Attrs: mustprogress uwtable
define linkonce_odr hidden void @_ZN19ref_manager_wrapperI4expr11ast_managerE7inc_refEPS0_(ptr noundef nonnull align 8 dereferenceable(8) %0, ptr noundef %1) #4 comdat align 2 {
  %3 = alloca ptr, align 8
  %4 = alloca ptr, align 8
  store ptr %0, ptr %3, align 8, !tbaa !441
  store ptr %1, ptr %4, align 8, !tbaa !50
  %5 = load ptr, ptr %3, align 8
  %6 = getelementptr inbounds nuw %class.ref_manager_wrapper, ptr %5, i32 0, i32 0
  %7 = load ptr, ptr %6, align 8, !tbaa !443
  %8 = load ptr, ptr %4, align 8, !tbaa !50
  call void @_ZN11ast_manager7inc_refEP3ast(ptr noundef nonnull align 8 dereferenceable(976) %7, ptr noundef %8)
  ret void
}

; Function Attrs: mustprogress uwtable
define linkonce_odr hidden noundef nonnull align 8 dereferenceable(8) ptr @_ZN6vectorIP4exprLb0EjE9push_backERKS1_(ptr noundef nonnull align 8 dereferenceable(8) %0, ptr noundef nonnull align 8 dereferenceable(8) %1) #4 comdat align 2 {
  %3 = alloca ptr, align 8
  %4 = alloca ptr, align 8
  store ptr %0, ptr %3, align 8, !tbaa !425
  store ptr %1, ptr %4, align 8, !tbaa !56
  %5 = load ptr, ptr %3, align 8
  %6 = getelementptr inbounds nuw %class.vector.43, ptr %5, i32 0, i32 0
  %7 = load ptr, ptr %6, align 8, !tbaa !427
  %8 = icmp eq ptr %7, null
  br i1 %8, label %19, label %9

9:                                                ; preds = %2
  %10 = getelementptr inbounds nuw %class.vector.43, ptr %5, i32 0, i32 0
  %11 = load ptr, ptr %10, align 8, !tbaa !427
  %12 = getelementptr inbounds i32, ptr %11, i64 -1
  %13 = load i32, ptr %12, align 4, !tbaa !67
  %14 = getelementptr inbounds nuw %class.vector.43, ptr %5, i32 0, i32 0
  %15 = load ptr, ptr %14, align 8, !tbaa !427
  %16 = getelementptr inbounds i32, ptr %15, i64 -2
  %17 = load i32, ptr %16, align 4, !tbaa !67
  %18 = icmp eq i32 %13, %17
  br i1 %18, label %19, label %20

19:                                               ; preds = %9, %2
  call void @_ZN6vectorIP4exprLb0EjE13expand_vectorEv(ptr noundef nonnull align 8 dereferenceable(8) %5)
  br label %20

20:                                               ; preds = %19, %9
  %21 = getelementptr inbounds nuw %class.vector.43, ptr %5, i32 0, i32 0
  %22 = load ptr, ptr %21, align 8, !tbaa !427
  %23 = getelementptr inbounds nuw %class.vector.43, ptr %5, i32 0, i32 0
  %24 = load ptr, ptr %23, align 8, !tbaa !427
  %25 = getelementptr inbounds i32, ptr %24, i64 -1
  %26 = load i32, ptr %25, align 4, !tbaa !67
  %27 = zext i32 %26 to i64
  %28 = getelementptr inbounds nuw ptr, ptr %22, i64 %27
  %29 = load ptr, ptr %4, align 8, !tbaa !56
  %30 = load ptr, ptr %29, align 8, !tbaa !50
  store ptr %30, ptr %28, align 8, !tbaa !50
  %31 = getelementptr inbounds nuw %class.vector.43, ptr %5, i32 0, i32 0
  %32 = load ptr, ptr %31, align 8, !tbaa !427
  %33 = getelementptr inbounds i32, ptr %32, i64 -1
  %34 = load i32, ptr %33, align 4, !tbaa !67
  %35 = add i32 %34, 1
  store i32 %35, ptr %33, align 4, !tbaa !67
  ret ptr %5
}

; Function Attrs: mustprogress uwtable
define linkonce_odr hidden void @_ZN15ref_vector_coreI4expr19ref_manager_wrapperIS0_11ast_managerEE7inc_refEPS0_(ptr noundef nonnull align 8 dereferenceable(16) %0, ptr noundef %1) #4 comdat align 2 {
  %3 = alloca ptr, align 8
  %4 = alloca ptr, align 8
  store ptr %0, ptr %3, align 8, !tbaa !236
  store ptr %1, ptr %4, align 8, !tbaa !50
  %5 = load ptr, ptr %3, align 8
  %6 = load ptr, ptr %4, align 8, !tbaa !50
  call void @_ZN19ref_manager_wrapperI4expr11ast_managerE7inc_refEPS0_(ptr noundef nonnull align 8 dereferenceable(8) %5, ptr noundef %6)
  ret void
}

; Function Attrs: mustprogress uwtable
define linkonce_odr hidden noundef nonnull align 8 dereferenceable(8) ptr @_ZN6vectorIbLb0EjE9push_backERKb(ptr noundef nonnull align 8 dereferenceable(8) %0, ptr noundef nonnull align 1 dereferenceable(1) %1) #4 comdat align 2 {
  %3 = alloca ptr, align 8
  %4 = alloca ptr, align 8
  store ptr %0, ptr %3, align 8, !tbaa !243
  store ptr %1, ptr %4, align 8, !tbaa !59
  %5 = load ptr, ptr %3, align 8
  %6 = getelementptr inbounds nuw %class.vector.61, ptr %5, i32 0, i32 0
  %7 = load ptr, ptr %6, align 8, !tbaa !245
  %8 = icmp eq ptr %7, null
  br i1 %8, label %19, label %9

9:                                                ; preds = %2
  %10 = getelementptr inbounds nuw %class.vector.61, ptr %5, i32 0, i32 0
  %11 = load ptr, ptr %10, align 8, !tbaa !245
  %12 = getelementptr inbounds i32, ptr %11, i64 -1
  %13 = load i32, ptr %12, align 4, !tbaa !67
  %14 = getelementptr inbounds nuw %class.vector.61, ptr %5, i32 0, i32 0
  %15 = load ptr, ptr %14, align 8, !tbaa !245
  %16 = getelementptr inbounds i32, ptr %15, i64 -2
  %17 = load i32, ptr %16, align 4, !tbaa !67
  %18 = icmp eq i32 %13, %17
  br i1 %18, label %19, label %20

19:                                               ; preds = %9, %2
  call void @_ZN6vectorIbLb0EjE13expand_vectorEv(ptr noundef nonnull align 8 dereferenceable(8) %5)
  br label %20

20:                                               ; preds = %19, %9
  %21 = getelementptr inbounds nuw %class.vector.61, ptr %5, i32 0, i32 0
  %22 = load ptr, ptr %21, align 8, !tbaa !245
  %23 = getelementptr inbounds nuw %class.vector.61, ptr %5, i32 0, i32 0
  %24 = load ptr, ptr %23, align 8, !tbaa !245
  %25 = getelementptr inbounds i32, ptr %24, i64 -1
  %26 = load i32, ptr %25, align 4, !tbaa !67
  %27 = zext i32 %26 to i64
  %28 = getelementptr inbounds nuw i8, ptr %22, i64 %27
  %29 = load ptr, ptr %4, align 8, !tbaa !59
  %30 = load i8, ptr %29, align 1, !tbaa !114, !range !116, !noundef !117
  %31 = trunc i8 %30 to i1
  %32 = zext i1 %31 to i8
  store i8 %32, ptr %28, align 1, !tbaa !114
  %33 = getelementptr inbounds nuw %class.vector.61, ptr %5, i32 0, i32 0
  %34 = load ptr, ptr %33, align 8, !tbaa !245
  %35 = getelementptr inbounds i32, ptr %34, i64 -1
  %36 = load i32, ptr %35, align 4, !tbaa !67
  %37 = add i32 %36, 1
  store i32 %37, ptr %35, align 4, !tbaa !67
  ret ptr %5
}

; Function Attrs: mustprogress uwtable
define linkonce_odr hidden noundef nonnull align 8 dereferenceable(16) ptr @_ZN15ref_vector_coreI4expr19ref_manager_wrapperIS0_11ast_managerEE9push_backEPS0_(ptr noundef nonnull align 8 dereferenceable(16) %0, ptr noundef %1) #4 comdat align 2 {
  %3 = alloca ptr, align 8
  %4 = alloca ptr, align 8
  store ptr %0, ptr %3, align 8, !tbaa !236
  store ptr %1, ptr %4, align 8, !tbaa !50
  %5 = load ptr, ptr %3, align 8
  %6 = load ptr, ptr %4, align 8, !tbaa !50
  call void @_ZN15ref_vector_coreI4expr19ref_manager_wrapperIS0_11ast_managerEE7inc_refEPS0_(ptr noundef nonnull align 8 dereferenceable(16) %5, ptr noundef %6)
  %7 = getelementptr inbounds nuw %class.ref_vector_core, ptr %5, i32 0, i32 1
  %8 = call noundef nonnull align 8 dereferenceable(8) ptr @_ZN6vectorIP4exprLb0EjE9push_backERKS1_(ptr noundef nonnull align 8 dereferenceable(8) %7, ptr noundef nonnull align 8 dereferenceable(8) %4)
  ret ptr %5
}

; Function Attrs: mustprogress uwtable
define linkonce_odr hidden noundef nonnull align 8 dereferenceable(8) ptr @_ZN6vectorIP9func_declLb0EjE9push_backERKS1_(ptr noundef nonnull align 8 dereferenceable(8) %0, ptr noundef nonnull align 8 dereferenceable(8) %1) #4 comdat align 2 {
  %3 = alloca ptr, align 8
  %4 = alloca ptr, align 8
  store ptr %0, ptr %3, align 8, !tbaa !238
  store ptr %1, ptr %4, align 8, !tbaa !247
  %5 = load ptr, ptr %3, align 8
  %6 = getelementptr inbounds nuw %class.vector.59, ptr %5, i32 0, i32 0
  %7 = load ptr, ptr %6, align 8, !tbaa !240
  %8 = icmp eq ptr %7, null
  br i1 %8, label %19, label %9

9:                                                ; preds = %2
  %10 = getelementptr inbounds nuw %class.vector.59, ptr %5, i32 0, i32 0
  %11 = load ptr, ptr %10, align 8, !tbaa !240
  %12 = getelementptr inbounds i32, ptr %11, i64 -1
  %13 = load i32, ptr %12, align 4, !tbaa !67
  %14 = getelementptr inbounds nuw %class.vector.59, ptr %5, i32 0, i32 0
  %15 = load ptr, ptr %14, align 8, !tbaa !240
  %16 = getelementptr inbounds i32, ptr %15, i64 -2
  %17 = load i32, ptr %16, align 4, !tbaa !67
  %18 = icmp eq i32 %13, %17
  br i1 %18, label %19, label %20

19:                                               ; preds = %9, %2
  call void @_ZN6vectorIP9func_declLb0EjE13expand_vectorEv(ptr noundef nonnull align 8 dereferenceable(8) %5)
  br label %20

20:                                               ; preds = %19, %9
  %21 = getelementptr inbounds nuw %class.vector.59, ptr %5, i32 0, i32 0
  %22 = load ptr, ptr %21, align 8, !tbaa !240
  %23 = getelementptr inbounds nuw %class.vector.59, ptr %5, i32 0, i32 0
  %24 = load ptr, ptr %23, align 8, !tbaa !240
  %25 = getelementptr inbounds i32, ptr %24, i64 -1
  %26 = load i32, ptr %25, align 4, !tbaa !67
  %27 = zext i32 %26 to i64
  %28 = getelementptr inbounds nuw ptr, ptr %22, i64 %27
  %29 = load ptr, ptr %4, align 8, !tbaa !247
  %30 = load ptr, ptr %29, align 8, !tbaa !91
  store ptr %30, ptr %28, align 8, !tbaa !91
  %31 = getelementptr inbounds nuw %class.vector.59, ptr %5, i32 0, i32 0
  %32 = load ptr, ptr %31, align 8, !tbaa !240
  %33 = getelementptr inbounds i32, ptr %32, i64 -1
  %34 = load i32, ptr %33, align 4, !tbaa !67
  %35 = add i32 %34, 1
  store i32 %35, ptr %33, align 4, !tbaa !67
  ret ptr %5
}

; Function Attrs: mustprogress uwtable
define hidden void @_ZN10macro_util16macro_candidates6insertEP9func_declP4exprS4_bbb(ptr noundef nonnull align 8 dereferenceable(64) %0, ptr noundef %1, ptr noundef %2, ptr noundef %3, i1 noundef zeroext %4, i1 noundef zeroext %5, i1 noundef zeroext %6) #4 align 2 {
  %8 = alloca ptr, align 8
  %9 = alloca ptr, align 8
  %10 = alloca ptr, align 8
  %11 = alloca ptr, align 8
  %12 = alloca i8, align 1
  %13 = alloca i8, align 1
  %14 = alloca i8, align 1
  store ptr %0, ptr %8, align 8, !tbaa !228
  store ptr %1, ptr %9, align 8, !tbaa !91
  store ptr %2, ptr %10, align 8, !tbaa !50
  store ptr %3, ptr %11, align 8, !tbaa !50
  %15 = zext i1 %4 to i8
  store i8 %15, ptr %12, align 1, !tbaa !114
  %16 = zext i1 %5 to i8
  store i8 %16, ptr %13, align 1, !tbaa !114
  %17 = zext i1 %6 to i8
  store i8 %17, ptr %14, align 1, !tbaa !114
  %18 = load ptr, ptr %8, align 8
  %19 = getelementptr inbounds nuw %"class.macro_util::macro_candidates", ptr %18, i32 0, i32 0
  %20 = call noundef nonnull align 8 dereferenceable(8) ptr @_ZN6vectorIP9func_declLb0EjE9push_backERKS1_(ptr noundef nonnull align 8 dereferenceable(8) %19, ptr noundef nonnull align 8 dereferenceable(8) %9)
  %21 = getelementptr inbounds nuw %"class.macro_util::macro_candidates", ptr %18, i32 0, i32 1
  %22 = load ptr, ptr %10, align 8, !tbaa !50
  %23 = call noundef nonnull align 8 dereferenceable(16) ptr @_ZN15ref_vector_coreI4expr19ref_manager_wrapperIS0_11ast_managerEE9push_backEPS0_(ptr noundef nonnull align 8 dereferenceable(16) %21, ptr noundef %22)
  %24 = getelementptr inbounds nuw %"class.macro_util::macro_candidates", ptr %18, i32 0, i32 2
  %25 = load ptr, ptr %11, align 8, !tbaa !50
  %26 = call noundef nonnull align 8 dereferenceable(16) ptr @_ZN15ref_vector_coreI4expr19ref_manager_wrapperIS0_11ast_managerEE9push_backEPS0_(ptr noundef nonnull align 8 dereferenceable(16) %24, ptr noundef %25)
  %27 = getelementptr inbounds nuw %"class.macro_util::macro_candidates", ptr %18, i32 0, i32 3
  %28 = call noundef nonnull align 8 dereferenceable(8) ptr @_ZN6vectorIbLb0EjE9push_backERKb(ptr noundef nonnull align 8 dereferenceable(8) %27, ptr noundef nonnull align 1 dereferenceable(1) %12)
  %29 = getelementptr inbounds nuw %"class.macro_util::macro_candidates", ptr %18, i32 0, i32 4
  %30 = call noundef nonnull align 8 dereferenceable(8) ptr @_ZN6vectorIbLb0EjE9push_backERKb(ptr noundef nonnull align 8 dereferenceable(8) %29, ptr noundef nonnull align 1 dereferenceable(1) %13)
  %31 = getelementptr inbounds nuw %"class.macro_util::macro_candidates", ptr %18, i32 0, i32 5
  %32 = call noundef nonnull align 8 dereferenceable(8) ptr @_ZN6vectorIbLb0EjE9push_backERKb(ptr noundef nonnull align 8 dereferenceable(8) %31, ptr noundef nonnull align 1 dereferenceable(1) %14)
  ret void
}