; Function Attrs: mustprogress uwtable
define hidden void @_ZN10macro_util16macro_candidates6insertEP9func_declP4exprS4_bbb(ptr noundef nonnull align 8 dereferenceable(64) %0, ptr noundef %1, ptr noundef %2, ptr noundef %3, i1 noundef zeroext %4, i1 noundef zeroext %5, i1 noundef zeroext %6) local_unnamed_addr #3 align 2 {
  %8 = zext i1 %4 to i8
  %9 = zext i1 %5 to i8
  %10 = load ptr, ptr %0, align 8, !tbaa !216
  %11 = icmp eq ptr %10, null
  br i1 %11, label %18, label %12

12:                                               ; preds = %7
  %13 = getelementptr inbounds i8, ptr %10, i64 -4
  %14 = load i32, ptr %13, align 4, !tbaa !85
  %15 = getelementptr inbounds i8, ptr %10, i64 -8
  %16 = load i32, ptr %15, align 4, !tbaa !85
  %17 = icmp eq i32 %14, %16
  br i1 %17, label %18, label %_ZN6vectorIP9func_declLb0EjE9push_backERKS1_.exit

18:                                               ; preds = %12, %7
  tail call void @_ZN6vectorIP9func_declLb0EjE13expand_vectorEv(ptr noundef nonnull align 8 dereferenceable(8) %0)
  %.pre.i = load ptr, ptr %0, align 8, !tbaa !216
  %.phi.trans.insert.i = getelementptr inbounds i8, ptr %.pre.i, i64 -4
  %.pre2.i = load i32, ptr %.phi.trans.insert.i, align 4, !tbaa !85
  br label %_ZN6vectorIP9func_declLb0EjE9push_backERKS1_.exit

_ZN6vectorIP9func_declLb0EjE9push_backERKS1_.exit: ; preds = %12, %18
  %19 = phi i32 [ %.pre2.i, %18 ], [ %14, %12 ]
  %20 = phi ptr [ %.pre.i, %18 ], [ %10, %12 ]
  %21 = getelementptr inbounds i8, ptr %20, i64 -4
  %22 = zext i32 %19 to i64
  %23 = getelementptr inbounds nuw ptr, ptr %20, i64 %22
  store ptr %1, ptr %23, align 8, !tbaa !222
  %24 = add i32 %19, 1
  store i32 %24, ptr %21, align 4, !tbaa !85
  %.not.i.i.i.i = icmp eq ptr %2, null
  br i1 %.not.i.i.i.i, label %_ZN15ref_vector_coreI4expr19ref_manager_wrapperIS0_11ast_managerEE7inc_refEPS0_.exit.i, label %25

25:                                               ; preds = %_ZN6vectorIP9func_declLb0EjE9push_backERKS1_.exit
  %26 = getelementptr inbounds nuw i8, ptr %2, i64 8
  %27 = load i32, ptr %26, align 4, !tbaa !74
  %28 = add i32 %27, 1
  store i32 %28, ptr %26, align 4, !tbaa !74
  br label %_ZN15ref_vector_coreI4expr19ref_manager_wrapperIS0_11ast_managerEE7inc_refEPS0_.exit.i

_ZN15ref_vector_coreI4expr19ref_manager_wrapperIS0_11ast_managerEE7inc_refEPS0_.exit.i: ; preds = %25, %_ZN6vectorIP9func_declLb0EjE9push_backERKS1_.exit
  %29 = getelementptr inbounds nuw i8, ptr %0, i64 16
  %30 = load ptr, ptr %29, align 8, !tbaa !151
  %31 = icmp eq ptr %30, null
  br i1 %31, label %38, label %32

32:                                               ; preds = %_ZN15ref_vector_coreI4expr19ref_manager_wrapperIS0_11ast_managerEE7inc_refEPS0_.exit.i
  %33 = getelementptr inbounds i8, ptr %30, i64 -4
  %34 = load i32, ptr %33, align 4, !tbaa !85
  %35 = getelementptr inbounds i8, ptr %30, i64 -8
  %36 = load i32, ptr %35, align 4, !tbaa !85
  %37 = icmp eq i32 %34, %36
  br i1 %37, label %38, label %_ZN15ref_vector_coreI4expr19ref_manager_wrapperIS0_11ast_managerEE9push_backEPS0_.exit

38:                                               ; preds = %32, %_ZN15ref_vector_coreI4expr19ref_manager_wrapperIS0_11ast_managerEE7inc_refEPS0_.exit.i
  tail call void @_ZN6vectorIP4exprLb0EjE13expand_vectorEv(ptr noundef nonnull align 8 dereferenceable(8) %29)
  %.pre.i.i = load ptr, ptr %29, align 8, !tbaa !151
  %.phi.trans.insert.i.i = getelementptr inbounds i8, ptr %.pre.i.i, i64 -4
  %.pre2.i.i = load i32, ptr %.phi.trans.insert.i.i, align 4, !tbaa !85
  br label %_ZN15ref_vector_coreI4expr19ref_manager_wrapperIS0_11ast_managerEE9push_backEPS0_.exit

_ZN15ref_vector_coreI4expr19ref_manager_wrapperIS0_11ast_managerEE9push_backEPS0_.exit: ; preds = %32, %38
  %39 = phi i32 [ %.pre2.i.i, %38 ], [ %34, %32 ]
  %40 = phi ptr [ %.pre.i.i, %38 ], [ %30, %32 ]
  %41 = getelementptr inbounds i8, ptr %40, i64 -4
  %42 = zext i32 %39 to i64
  %43 = getelementptr inbounds nuw ptr, ptr %40, i64 %42
  store ptr %2, ptr %43, align 8, !tbaa !73
  %44 = add i32 %39, 1
  store i32 %44, ptr %41, align 4, !tbaa !85
  %.not.i.i.i.i3 = icmp eq ptr %3, null
  br i1 %.not.i.i.i.i3, label %_ZN15ref_vector_coreI4expr19ref_manager_wrapperIS0_11ast_managerEE7inc_refEPS0_.exit.i4, label %45

45:                                               ; preds = %_ZN15ref_vector_coreI4expr19ref_manager_wrapperIS0_11ast_managerEE9push_backEPS0_.exit
  %46 = getelementptr inbounds nuw i8, ptr %3, i64 8
  %47 = load i32, ptr %46, align 4, !tbaa !74
  %48 = add i32 %47, 1
  store i32 %48, ptr %46, align 4, !tbaa !74
  br label %_ZN15ref_vector_coreI4expr19ref_manager_wrapperIS0_11ast_managerEE7inc_refEPS0_.exit.i4

_ZN15ref_vector_coreI4expr19ref_manager_wrapperIS0_11ast_managerEE7inc_refEPS0_.exit.i4: ; preds = %45, %_ZN15ref_vector_coreI4expr19ref_manager_wrapperIS0_11ast_managerEE9push_backEPS0_.exit
  %49 = getelementptr inbounds nuw i8, ptr %0, i64 32
  %50 = load ptr, ptr %49, align 8, !tbaa !151
  %51 = icmp eq ptr %50, null
  br i1 %51, label %58, label %52

52:                                               ; preds = %_ZN15ref_vector_coreI4expr19ref_manager_wrapperIS0_11ast_managerEE7inc_refEPS0_.exit.i4
  %53 = getelementptr inbounds i8, ptr %50, i64 -4
  %54 = load i32, ptr %53, align 4, !tbaa !85
  %55 = getelementptr inbounds i8, ptr %50, i64 -8
  %56 = load i32, ptr %55, align 4, !tbaa !85
  %57 = icmp eq i32 %54, %56
  br i1 %57, label %58, label %_ZN15ref_vector_coreI4expr19ref_manager_wrapperIS0_11ast_managerEE9push_backEPS0_.exit8

58:                                               ; preds = %52, %_ZN15ref_vector_coreI4expr19ref_manager_wrapperIS0_11ast_managerEE7inc_refEPS0_.exit.i4
  tail call void @_ZN6vectorIP4exprLb0EjE13expand_vectorEv(ptr noundef nonnull align 8 dereferenceable(8) %49)
  %.pre.i.i5 = load ptr, ptr %49, align 8, !tbaa !151
  %.phi.trans.insert.i.i6 = getelementptr inbounds i8, ptr %.pre.i.i5, i64 -4
  %.pre2.i.i7 = load i32, ptr %.phi.trans.insert.i.i6, align 4, !tbaa !85
  br label %_ZN15ref_vector_coreI4expr19ref_manager_wrapperIS0_11ast_managerEE9push_backEPS0_.exit8

_ZN15ref_vector_coreI4expr19ref_manager_wrapperIS0_11ast_managerEE9push_backEPS0_.exit8: ; preds = %52, %58
  %59 = phi i32 [ %.pre2.i.i7, %58 ], [ %54, %52 ]
  %60 = phi ptr [ %.pre.i.i5, %58 ], [ %50, %52 ]
  %61 = getelementptr inbounds i8, ptr %60, i64 -4
  %62 = zext i32 %59 to i64
  %63 = getelementptr inbounds nuw ptr, ptr %60, i64 %62
  store ptr %3, ptr %63, align 8, !tbaa !73
  %64 = add i32 %59, 1
  store i32 %64, ptr %61, align 4, !tbaa !85
  %65 = getelementptr inbounds nuw i8, ptr %0, i64 40
  %66 = load ptr, ptr %65, align 8, !tbaa !220
  %67 = icmp eq ptr %66, null
  br i1 %67, label %74, label %68

68:                                               ; preds = %_ZN15ref_vector_coreI4expr19ref_manager_wrapperIS0_11ast_managerEE9push_backEPS0_.exit8
  %69 = getelementptr inbounds i8, ptr %66, i64 -4
  %70 = load i32, ptr %69, align 4, !tbaa !85
  %71 = getelementptr inbounds i8, ptr %66, i64 -8
  %72 = load i32, ptr %71, align 4, !tbaa !85
  %73 = icmp eq i32 %70, %72
  br i1 %73, label %74, label %_ZN6vectorIbLb0EjE9push_backERKb.exit

74:                                               ; preds = %68, %_ZN15ref_vector_coreI4expr19ref_manager_wrapperIS0_11ast_managerEE9push_backEPS0_.exit8
  tail call void @_ZN6vectorIbLb0EjE13expand_vectorEv(ptr noundef nonnull align 8 dereferenceable(8) %65)
  %.pre.i9 = load ptr, ptr %65, align 8, !tbaa !220
  %.phi.trans.insert.i10 = getelementptr inbounds i8, ptr %.pre.i9, i64 -4
  %.pre2.i11 = load i32, ptr %.phi.trans.insert.i10, align 4, !tbaa !85
  br label %_ZN6vectorIbLb0EjE9push_backERKb.exit

_ZN6vectorIbLb0EjE9push_backERKb.exit:            ; preds = %68, %74
  %75 = phi i32 [ %.pre2.i11, %74 ], [ %70, %68 ]
  %76 = phi ptr [ %.pre.i9, %74 ], [ %66, %68 ]
  %77 = getelementptr inbounds i8, ptr %76, i64 -4
  %78 = zext i32 %75 to i64
  %79 = getelementptr inbounds nuw i8, ptr %76, i64 %78
  store i8 %8, ptr %79, align 1, !tbaa !110
  %80 = add i32 %75, 1
  store i32 %80, ptr %77, align 4, !tbaa !85
  %81 = getelementptr inbounds nuw i8, ptr %0, i64 48
  %82 = load ptr, ptr %81, align 8, !tbaa !220
  %83 = icmp eq ptr %82, null
  br i1 %83, label %90, label %84

84:                                               ; preds = %_ZN6vectorIbLb0EjE9push_backERKb.exit
  %85 = getelementptr inbounds i8, ptr %82, i64 -4
  %86 = load i32, ptr %85, align 4, !tbaa !85
  %87 = getelementptr inbounds i8, ptr %82, i64 -8
  %88 = load i32, ptr %87, align 4, !tbaa !85
  %89 = icmp eq i32 %86, %88
  br i1 %89, label %90, label %_ZN6vectorIbLb0EjE9push_backERKb.exit15

90:                                               ; preds = %84, %_ZN6vectorIbLb0EjE9push_backERKb.exit
  tail call void @_ZN6vectorIbLb0EjE13expand_vectorEv(ptr noundef nonnull align 8 dereferenceable(8) %81)
  %.pre.i12 = load ptr, ptr %81, align 8, !tbaa !220
  %.phi.trans.insert.i13 = getelementptr inbounds i8, ptr %.pre.i12, i64 -4
  %.pre2.i14 = load i32, ptr %.phi.trans.insert.i13, align 4, !tbaa !85
  br label %_ZN6vectorIbLb0EjE9push_backERKb.exit15

_ZN6vectorIbLb0EjE9push_backERKb.exit15:          ; preds = %84, %90
  %91 = phi i32 [ %.pre2.i14, %90 ], [ %86, %84 ]
  %92 = phi ptr [ %.pre.i12, %90 ], [ %82, %84 ]
  %93 = getelementptr inbounds i8, ptr %92, i64 -4
  %94 = zext i32 %91 to i64
  %95 = getelementptr inbounds nuw i8, ptr %92, i64 %94
  store i8 %9, ptr %95, align 1, !tbaa !110
  %96 = add i32 %91, 1
  store i32 %96, ptr %93, align 4, !tbaa !85
  %97 = getelementptr inbounds nuw i8, ptr %0, i64 56
  %98 = load ptr, ptr %97, align 8, !tbaa !220
  %99 = icmp eq ptr %98, null
  br i1 %99, label %106, label %100

100:                                              ; preds = %_ZN6vectorIbLb0EjE9push_backERKb.exit15
  %101 = getelementptr inbounds i8, ptr %98, i64 -4
  %102 = load i32, ptr %101, align 4, !tbaa !85
  %103 = getelementptr inbounds i8, ptr %98, i64 -8
  %104 = load i32, ptr %103, align 4, !tbaa !85
  %105 = icmp eq i32 %102, %104
  br i1 %105, label %106, label %_ZN6vectorIbLb0EjE9push_backERKb.exit19

106:                                              ; preds = %100, %_ZN6vectorIbLb0EjE9push_backERKb.exit15
  tail call void @_ZN6vectorIbLb0EjE13expand_vectorEv(ptr noundef nonnull align 8 dereferenceable(8) %97)
  %.pre.i16 = load ptr, ptr %97, align 8, !tbaa !220
  %.phi.trans.insert.i17 = getelementptr inbounds i8, ptr %.pre.i16, i64 -4
  %.pre2.i18 = load i32, ptr %.phi.trans.insert.i17, align 4, !tbaa !85
  br label %_ZN6vectorIbLb0EjE9push_backERKb.exit19

_ZN6vectorIbLb0EjE9push_backERKb.exit19:          ; preds = %100, %106
  %107 = phi i32 [ %.pre2.i18, %106 ], [ %102, %100 ]
  %108 = phi ptr [ %.pre.i16, %106 ], [ %98, %100 ]
  %109 = zext i1 %6 to i8
  %110 = getelementptr inbounds i8, ptr %108, i64 -4
  %111 = zext i32 %107 to i64
  %112 = getelementptr inbounds nuw i8, ptr %108, i64 %111
  store i8 %109, ptr %112, align 1, !tbaa !110
  %113 = add i32 %107, 1
  store i32 %113, ptr %110, align 4, !tbaa !85
  ret void
}